; Listing generated by Microsoft (R) Optimizing Compiler Version 19.29.30038.1 

include listing.inc

INCLUDELIB MSVCRTD
INCLUDELIB OLDNAMES

PUBLIC	?staticMetaObject@QssFile@@2UQMetaObject@@B	; QssFile::staticMetaObject
PUBLIC	?qt_static_metacall@QssFile@@CAXPEAVQObject@@W4Call@QMetaObject@@HPEAPEAX@Z ; QssFile::qt_static_metacall
PUBLIC	??$staticMetaObject@$1?staticMetaObject@QObject@@2UQMetaObject@@B@QMetaObject@@SAPEBU0@XZ ; QMetaObject::staticMetaObject<&QObject::staticMetaObject>
CONST	SEGMENT
$SG172302 DB	'D:\software\qt\6.0.4\msvc2019_64\include\QtCore\qmetatyp'
	DB	'e.h', 00H
$SG173711 DB	'%s', 00H
	ORG $+1
$SG172303 DB	'qRegisterNormalizedMetaType was called with a not normal'
	DB	'ized type name, please call qRegisterMetaType instead.', 00H
	ORG $+1
$SG172304 DB	'qRegisterNormalizedMetaType', 00H
	ORG $+4
$SG173710 DB	'invalid argument', 00H
	ORG $+7
$SG173715 DB	'"', 00H, 'i', 00H, 'n', 00H, 'v', 00H, 'a', 00H, 'l', 00H
	DB	'i', 00H, 'd', 00H, ' ', 00H, 'a', 00H, 'r', 00H, 'g', 00H, 'u'
	DB	00H, 'm', 00H, 'e', 00H, 'n', 00H, 't', 00H, '"', 00H, 00H, 00H
	ORG $+2
$SG173712 DB	'D:\software\vistualStudio\vistualStudioIDE\VC\Tools\MSVC'
	DB	'\14.29.30037\include\xmemory', 00H
	ORG $+3
?qt_meta_stringdata_QssFile@@3Uqt_meta_stringdata_QssFile_t@@B DD 08H ; qt_meta_stringdata_QssFile
	DD	07H
	DB	051H
	DB	073H
	DB	073H
	DB	046H
	DB	069H
	DB	06cH
	DB	065H
	DB	00H
$SG105948 DB	'void', 00H
	ORG $+3
$SG173713 DB	'D', 00H, ':', 00H, '\', 00H, 's', 00H, 'o', 00H, 'f', 00H
	DB	't', 00H, 'w', 00H, 'a', 00H, 'r', 00H, 'e', 00H, '\', 00H, 'v'
	DB	00H, 'i', 00H, 's', 00H, 't', 00H, 'u', 00H, 'a', 00H, 'l', 00H
	DB	'S', 00H, 't', 00H, 'u', 00H, 'd', 00H, 'i', 00H, 'o', 00H, '\'
	DB	00H, 'v', 00H, 'i', 00H, 's', 00H, 't', 00H, 'u', 00H, 'a', 00H
	DB	'l', 00H, 'S', 00H, 't', 00H, 'u', 00H, 'd', 00H, 'i', 00H, 'o'
	DB	00H, 'I', 00H, 'D', 00H, 'E', 00H, '\', 00H, 'V', 00H, 'C', 00H
	DB	'\', 00H, 'T', 00H, 'o', 00H, 'o', 00H, 'l', 00H, 's', 00H, '\'
	DB	00H, 'M', 00H, 'S', 00H, 'V', 00H, 'C', 00H, '\', 00H, '1', 00H
	DB	'4', 00H, '.', 00H, '2', 00H, '9', 00H, '.', 00H, '3', 00H, '0'
	DB	00H, '0', 00H, '3', 00H, '7', 00H, '\', 00H, 'i', 00H, 'n', 00H
	DB	'c', 00H, 'l', 00H, 'u', 00H, 'd', 00H, 'e', 00H, '\', 00H, 'x'
	DB	00H, 'm', 00H, 'e', 00H, 'm', 00H, 'o', 00H, 'r', 00H, 'y', 00H
	DB	00H, 00H
	ORG $+6
$SG173714 DB	's', 00H, 't', 00H, 'd', 00H, ':', 00H, ':', 00H, '_', 00H
	DB	'A', 00H, 'l', 00H, 'l', 00H, 'o', 00H, 'c', 00H, 'a', 00H, 't'
	DB	00H, 'e', 00H, '_', 00H, 'm', 00H, 'a', 00H, 'n', 00H, 'u', 00H
	DB	'a', 00H, 'l', 00H, 'l', 00H, 'y', 00H, '_', 00H, 'v', 00H, 'e'
	DB	00H, 'c', 00H, 't', 00H, 'o', 00H, 'r', 00H, '_', 00H, 'a', 00H
	DB	'l', 00H, 'i', 00H, 'g', 00H, 'n', 00H, 'e', 00H, 'd', 00H, 00H
	DB	00H
	ORG $+2
?staticMetaObject@QssFile@@2UQMetaObject@@B DQ 0000000000000000H ; QssFile::staticMetaObject
	DQ	FLAT:??$staticMetaObject@$1?staticMetaObject@QObject@@2UQMetaObject@@B@QMetaObject@@SAPEBU0@XZ
	DQ	FLAT:?qt_meta_stringdata_QssFile@@3Uqt_meta_stringdata_QssFile_t@@B
	DQ	FLAT:?qt_meta_data_QssFile@@3QBIB
	DQ	FLAT:?qt_static_metacall@QssFile@@CAXPEAVQObject@@W4Call@QMetaObject@@HPEAPEAX@Z
	DQ	0000000000000000H
	DQ	0000000000000000H
	DQ	0000000000000000H
?qt_meta_data_QssFile@@3QBIB DD 09H			; qt_meta_data_QssFile
	DD	00H
	DD	00H
	DD	00H
	DD	00H
	DD	00H
	DD	00H
	DD	00H
	DD	00H
	DD	00H
	DD	00H
	DD	00H
	DD	00H
	DD	00H
	DD	00H
	ORG $+4
$SG171912 DB	'D:\software\vistualStudio\vistualStudioIDE\VC\Tools\MSVC'
	DB	'\14.29.30037\include\xlocale', 00H
CONST	ENDS
PUBLIC	?__empty_global_delete@@YAXPEAX@Z		; __empty_global_delete
PUBLIC	?__empty_global_delete@@YAXPEAX_K@Z		; __empty_global_delete
PUBLIC	?__empty_global_delete@@YAXPEAXW4align_val_t@std@@@Z ; __empty_global_delete
PUBLIC	?__empty_global_delete@@YAXPEAX_KW4align_val_t@std@@@Z ; __empty_global_delete
PUBLIC	wmemcpy
PUBLIC	??C?$QScopedPointer@VQObjectData@@U?$QScopedPointerDeleter@VQObjectData@@@@@@QEBAPEAVQObjectData@@XZ ; QScopedPointer<QObjectData,QScopedPointerDeleter<QObjectData> >::operator->
PUBLIC	??$_Maklocstr@_W@std@@YAPEA_WPEBDPEA_WAEBU_Cvtvec@@@Z ; std::_Maklocstr<wchar_t>
PUBLIC	?_Maklocwcs@std@@YAPEA_WPEB_W@Z			; std::_Maklocwcs
PUBLIC	??$_Maklocstr@D@std@@YAPEADPEBDPEADAEBU_Cvtvec@@@Z ; std::_Maklocstr<char>
PUBLIC	??$_Getvals@_W@?$time_get@DV?$istreambuf_iterator@DU?$char_traits@D@std@@@std@@@std@@IEAAX_WAEBV_Locinfo@1@@Z ; std::time_get<char,std::istreambuf_iterator<char,std::char_traits<char> > >::_Getvals<wchar_t>
PUBLIC	??$_Getvals@_W@?$time_get@_WV?$istreambuf_iterator@_WU?$char_traits@_W@std@@@std@@@std@@IEAAX_WAEBV_Locinfo@1@@Z ; std::time_get<wchar_t,std::istreambuf_iterator<wchar_t,std::char_traits<wchar_t> > >::_Getvals<wchar_t>
PUBLIC	?metaObject@QssFile@@UEBAPEBUQMetaObject@@XZ	; QssFile::metaObject
PUBLIC	?qt_metacast@QssFile@@UEAAPEAXPEBD@Z		; QssFile::qt_metacast
PUBLIC	?qt_metacall@QssFile@@UEAAHW4Call@QMetaObject@@HPEAPEAX@Z ; QssFile::qt_metacall
PUBLIC	??_C@_0FF@GJOBIFNK@D?3?2software?2vistualStudio?2vistu@ ; `string'
PUBLIC	??_C@_0FF@OKKMIHHL@D?3?2software?2vistualStudio?2vistu@ ; `string'
PUBLIC	??_C@_0N@LPFKKEBD@?3AM?3am?3PM?3pm@		; `string'
PUBLIC	??_C@_1BK@MHIKGOKE@?$AA?3?$AAA?$AAM?$AA?3?$AAa?$AAm?$AA?3?$AAP?$AAM?$AA?3?$AAp?$AAm@ ; `string'
EXTRN	__imp__calloc_dbg:PROC
EXTRN	memcpy:PROC
EXTRN	__imp_wcslen:PROC
EXTRN	strcmp:PROC
EXTRN	strlen:PROC
EXTRN	?_Xbad_alloc@std@@YAXXZ:PROC			; std::_Xbad_alloc
EXTRN	__imp_?dynamicMetaObject@QObjectData@@QEBAPEAUQMetaObject@@XZ:PROC
EXTRN	__imp_?qt_metacast@QObject@@UEAAPEAXPEBD@Z:PROC
EXTRN	__imp_?qt_metacall@QObject@@UEAAHW4Call@QMetaObject@@HPEAPEAX@Z:PROC
EXTRN	_Mbrtowc:PROC
EXTRN	__imp_?_Getcvt@_Locinfo@std@@QEBA?AU_Cvtvec@@XZ:PROC
EXTRN	__imp_?_Getdays@_Locinfo@std@@QEBAPEBDXZ:PROC
EXTRN	__imp_?_Getmonths@_Locinfo@std@@QEBAPEBDXZ:PROC
EXTRN	__imp_?_W_Getdays@_Locinfo@std@@QEBAPEBGXZ:PROC
EXTRN	__imp_?_W_Getmonths@_Locinfo@std@@QEBAPEBGXZ:PROC
EXTRN	__GSHandlerCheck:PROC
EXTRN	__security_check_cookie:PROC
EXTRN	__imp_?staticMetaObject@QObject@@2UQMetaObject@@B:ZWORD
EXTRN	__security_cookie:QWORD
;	COMDAT pdata
pdata	SEGMENT
$pdata$wmemcpy DD imagerel $LN3
	DD	imagerel $LN3+50
	DD	imagerel $unwind$wmemcpy
pdata	ENDS
;	COMDAT pdata
pdata	SEGMENT
$pdata$??$_Maklocstr@_W@std@@YAPEA_WPEBDPEA_WAEBU_Cvtvec@@@Z DD imagerel $LN12
	DD	imagerel $LN12+474
	DD	imagerel $unwind$??$_Maklocstr@_W@std@@YAPEA_WPEBDPEA_WAEBU_Cvtvec@@@Z
pdata	ENDS
;	COMDAT pdata
pdata	SEGMENT
$pdata$?_Maklocwcs@std@@YAPEA_WPEB_W@Z DD imagerel $LN4
	DD	imagerel $LN4+113
	DD	imagerel $unwind$?_Maklocwcs@std@@YAPEA_WPEB_W@Z
pdata	ENDS
;	COMDAT pdata
pdata	SEGMENT
$pdata$??$_Maklocstr@D@std@@YAPEADPEBDPEADAEBU_Cvtvec@@@Z DD imagerel $LN7
	DD	imagerel $LN7+178
	DD	imagerel $unwind$??$_Maklocstr@D@std@@YAPEADPEBDPEADAEBU_Cvtvec@@@Z
pdata	ENDS
;	COMDAT pdata
pdata	SEGMENT
$pdata$??$_Getvals@_W@?$time_get@DV?$istreambuf_iterator@DU?$char_traits@D@std@@@std@@@std@@IEAAX_WAEBV_Locinfo@1@@Z DD imagerel $LN5
	DD	imagerel $LN5+364
	DD	imagerel $unwind$??$_Getvals@_W@?$time_get@DV?$istreambuf_iterator@DU?$char_traits@D@std@@@std@@@std@@IEAAX_WAEBV_Locinfo@1@@Z
pdata	ENDS
;	COMDAT pdata
pdata	SEGMENT
$pdata$??$_Getvals@_W@?$time_get@_WV?$istreambuf_iterator@_WU?$char_traits@_W@std@@@std@@@std@@IEAAX_WAEBV_Locinfo@1@@Z DD imagerel $LN5
	DD	imagerel $LN5+364
	DD	imagerel $unwind$??$_Getvals@_W@?$time_get@_WV?$istreambuf_iterator@_WU?$char_traits@_W@std@@@std@@@std@@IEAAX_WAEBV_Locinfo@1@@Z
pdata	ENDS
pdata	SEGMENT
$pdata$?metaObject@QssFile@@UEBAPEBUQMetaObject@@XZ DD imagerel $LN5
	DD	imagerel $LN5+88
	DD	imagerel $unwind$?metaObject@QssFile@@UEBAPEBUQMetaObject@@XZ
$pdata$?qt_metacast@QssFile@@UEAAPEAXPEBD@Z DD imagerel $LN5
	DD	imagerel $LN5+75
	DD	imagerel $unwind$?qt_metacast@QssFile@@UEAAPEAXPEBD@Z
$pdata$?qt_metacall@QssFile@@UEAAHW4Call@QMetaObject@@HPEAPEAX@Z DD imagerel $LN3
	DD	imagerel $LN3+61
	DD	imagerel $unwind$?qt_metacall@QssFile@@UEAAHW4Call@QMetaObject@@HPEAPEAX@Z
pdata	ENDS
;	COMDAT ??_C@_1BK@MHIKGOKE@?$AA?3?$AAA?$AAM?$AA?3?$AAa?$AAm?$AA?3?$AAP?$AAM?$AA?3?$AAp?$AAm@
CONST	SEGMENT
??_C@_1BK@MHIKGOKE@?$AA?3?$AAA?$AAM?$AA?3?$AAa?$AAm?$AA?3?$AAP?$AAM?$AA?3?$AAp?$AAm@ DB ':'
	DB	00H, 'A', 00H, 'M', 00H, ':', 00H, 'a', 00H, 'm', 00H, ':', 00H
	DB	'P', 00H, 'M', 00H, ':', 00H, 'p', 00H, 'm', 00H, 00H, 00H ; `string'
CONST	ENDS
;	COMDAT ??_C@_0N@LPFKKEBD@?3AM?3am?3PM?3pm@
CONST	SEGMENT
??_C@_0N@LPFKKEBD@?3AM?3am?3PM?3pm@ DB ':AM:am:PM:pm', 00H ; `string'
CONST	ENDS
;	COMDAT ??_C@_0FF@OKKMIHHL@D?3?2software?2vistualStudio?2vistu@
CONST	SEGMENT
??_C@_0FF@OKKMIHHL@D?3?2software?2vistualStudio?2vistu@ DB 'D:\software\v'
	DB	'istualStudio\vistualStudioIDE\VC\Tools\MSVC\14.29.30037\inclu'
	DB	'de\xlocnum', 00H				; `string'
CONST	ENDS
;	COMDAT ??_C@_0FF@GJOBIFNK@D?3?2software?2vistualStudio?2vistu@
CONST	SEGMENT
??_C@_0FF@GJOBIFNK@D?3?2software?2vistualStudio?2vistu@ DB 'D:\software\v'
	DB	'istualStudio\vistualStudioIDE\VC\Tools\MSVC\14.29.30037\inclu'
	DB	'de\xlocale', 00H				; `string'
CONST	ENDS
xdata	SEGMENT
$unwind$?metaObject@QssFile@@UEBAPEBUQMetaObject@@XZ DD 010901H
	DD	06209H
$unwind$?qt_metacast@QssFile@@UEAAPEAXPEBD@Z DD 010e01H
	DD	0420eH
$unwind$?qt_metacall@QssFile@@UEAAHW4Call@QMetaObject@@HPEAPEAX@Z DD 011701H
	DD	04217H
xdata	ENDS
;	COMDAT voltbl
voltbl	SEGMENT
_volmd	DW	01fH
	DW	0158H
voltbl	ENDS
;	COMDAT xdata
xdata	SEGMENT
$unwind$??$_Getvals@_W@?$time_get@_WV?$istreambuf_iterator@_WU?$char_traits@_W@std@@@std@@@std@@IEAAX_WAEBV_Locinfo@1@@Z DD 032419H
	DD	07011e215H
	DD	06010H
	DD	imagerel __GSHandlerCheck
	DD	060H
xdata	ENDS
;	COMDAT voltbl
voltbl	SEGMENT
_volmd	DW	01fH
	DW	0158H
voltbl	ENDS
;	COMDAT xdata
xdata	SEGMENT
$unwind$??$_Getvals@_W@?$time_get@DV?$istreambuf_iterator@DU?$char_traits@D@std@@@std@@@std@@IEAAX_WAEBV_Locinfo@1@@Z DD 032419H
	DD	07011e215H
	DD	06010H
	DD	imagerel __GSHandlerCheck
	DD	060H
xdata	ENDS
;	COMDAT xdata
xdata	SEGMENT
$unwind$??$_Maklocstr@D@std@@YAPEADPEBDPEADAEBU_Cvtvec@@@Z DD 011301H
	DD	0a213H
xdata	ENDS
;	COMDAT xdata
xdata	SEGMENT
$unwind$?_Maklocwcs@std@@YAPEA_WPEB_W@Z DD 010901H
	DD	08209H
xdata	ENDS
;	COMDAT xdata
xdata	SEGMENT
$unwind$??$_Maklocstr@_W@std@@YAPEA_WPEBDPEA_WAEBU_Cvtvec@@@Z DD 021701H
	DD	07010f217H
xdata	ENDS
;	COMDAT xdata
xdata	SEGMENT
$unwind$wmemcpy DD 011301H
	DD	04213H
xdata	ENDS
; Function compile flags: /Odtp
;	COMDAT ??$staticMetaObject@$1?staticMetaObject@QObject@@2UQMetaObject@@B@QMetaObject@@SAPEBU0@XZ
_TEXT	SEGMENT
??$staticMetaObject@$1?staticMetaObject@QObject@@2UQMetaObject@@B@QMetaObject@@SAPEBU0@XZ PROC ; QMetaObject::staticMetaObject<&QObject::staticMetaObject>, COMDAT
; File D:\software\qt\6.0.4\msvc2019_64\include\QtCore\qobjectdefs.h
; Line 398
	mov	rax, QWORD PTR __imp_?staticMetaObject@QObject@@2UQMetaObject@@B
; Line 399
	ret	0
??$staticMetaObject@$1?staticMetaObject@QObject@@2UQMetaObject@@B@QMetaObject@@SAPEBU0@XZ ENDP ; QMetaObject::staticMetaObject<&QObject::staticMetaObject>
_TEXT	ENDS
; Function compile flags: /Odtp
_TEXT	SEGMENT
_o$ = 8
_c$ = 16
_id$ = 24
_a$ = 32
?qt_static_metacall@QssFile@@CAXPEAVQObject@@W4Call@QMetaObject@@HPEAPEAX@Z PROC ; QssFile::qt_static_metacall
; File C:\Users\lwq\Documents\GitHub\WeClound\debug\moc\moc_qssfile.cpp
; Line 56
	mov	QWORD PTR [rsp+32], r9
	mov	DWORD PTR [rsp+24], r8d
	mov	DWORD PTR [rsp+16], edx
	mov	QWORD PTR [rsp+8], rcx
; Line 61
	ret	0
?qt_static_metacall@QssFile@@CAXPEAVQObject@@W4Call@QMetaObject@@HPEAPEAX@Z ENDP ; QssFile::qt_static_metacall
_TEXT	ENDS
; Function compile flags: /Odtp
_TEXT	SEGMENT
this$ = 48
_c$ = 56
_id$ = 64
_a$ = 72
?qt_metacall@QssFile@@UEAAHW4Call@QMetaObject@@HPEAPEAX@Z PROC ; QssFile::qt_metacall
; File C:\Users\lwq\Documents\GitHub\WeClound\debug\moc\moc_qssfile.cpp
; Line 88
$LN3:
	mov	QWORD PTR [rsp+32], r9
	mov	DWORD PTR [rsp+24], r8d
	mov	DWORD PTR [rsp+16], edx
	mov	QWORD PTR [rsp+8], rcx
	sub	rsp, 40					; 00000028H
; Line 89
	mov	r9, QWORD PTR _a$[rsp]
	mov	r8d, DWORD PTR _id$[rsp]
	mov	edx, DWORD PTR _c$[rsp]
	mov	rcx, QWORD PTR this$[rsp]
	call	QWORD PTR __imp_?qt_metacall@QObject@@UEAAHW4Call@QMetaObject@@HPEAPEAX@Z
	mov	DWORD PTR _id$[rsp], eax
; Line 90
	mov	eax, DWORD PTR _id$[rsp]
; Line 91
	add	rsp, 40					; 00000028H
	ret	0
?qt_metacall@QssFile@@UEAAHW4Call@QMetaObject@@HPEAPEAX@Z ENDP ; QssFile::qt_metacall
_TEXT	ENDS
; Function compile flags: /Odtp
_TEXT	SEGMENT
this$ = 48
_clname$ = 56
?qt_metacast@QssFile@@UEAAPEAXPEBD@Z PROC		; QssFile::qt_metacast
; File C:\Users\lwq\Documents\GitHub\WeClound\debug\moc\moc_qssfile.cpp
; Line 80
$LN5:
	mov	QWORD PTR [rsp+16], rdx
	mov	QWORD PTR [rsp+8], rcx
	sub	rsp, 40					; 00000028H
; Line 81
	cmp	QWORD PTR _clname$[rsp], 0
	jne	SHORT $LN2@qt_metacas
	xor	eax, eax
	jmp	SHORT $LN1@qt_metacas
$LN2@qt_metacas:
; Line 82
	lea	rdx, OFFSET FLAT:?qt_meta_stringdata_QssFile@@3Uqt_meta_stringdata_QssFile_t@@B+8
	mov	rcx, QWORD PTR _clname$[rsp]
	call	strcmp
	test	eax, eax
	jne	SHORT $LN3@qt_metacas
; Line 83
	mov	rax, QWORD PTR this$[rsp]
	jmp	SHORT $LN1@qt_metacas
$LN3@qt_metacas:
; Line 84
	mov	rdx, QWORD PTR _clname$[rsp]
	mov	rcx, QWORD PTR this$[rsp]
	call	QWORD PTR __imp_?qt_metacast@QObject@@UEAAPEAXPEBD@Z
$LN1@qt_metacas:
; Line 85
	add	rsp, 40					; 00000028H
	ret	0
?qt_metacast@QssFile@@UEAAPEAXPEBD@Z ENDP		; QssFile::qt_metacast
_TEXT	ENDS
; Function compile flags: /Odtp
_TEXT	SEGMENT
tv82 = 32
this$ = 64
?metaObject@QssFile@@UEBAPEBUQMetaObject@@XZ PROC	; QssFile::metaObject
; File C:\Users\lwq\Documents\GitHub\WeClound\debug\moc\moc_qssfile.cpp
; Line 75
$LN5:
	mov	QWORD PTR [rsp+8], rcx
	sub	rsp, 56					; 00000038H
; Line 76
	mov	rax, QWORD PTR this$[rsp]
	add	rax, 8
	mov	rcx, rax
	call	??C?$QScopedPointer@VQObjectData@@U?$QScopedPointerDeleter@VQObjectData@@@@@@QEBAPEAVQObjectData@@XZ ; QScopedPointer<QObjectData,QScopedPointerDeleter<QObjectData> >::operator->
	cmp	QWORD PTR [rax+56], 0
	je	SHORT $LN3@metaObject
	mov	rax, QWORD PTR this$[rsp]
	add	rax, 8
	mov	rcx, rax
	call	??C?$QScopedPointer@VQObjectData@@U?$QScopedPointerDeleter@VQObjectData@@@@@@QEBAPEAVQObjectData@@XZ ; QScopedPointer<QObjectData,QScopedPointerDeleter<QObjectData> >::operator->
	mov	rcx, rax
	call	QWORD PTR __imp_?dynamicMetaObject@QObjectData@@QEBAPEAUQMetaObject@@XZ
	mov	QWORD PTR tv82[rsp], rax
	jmp	SHORT $LN4@metaObject
$LN3@metaObject:
	lea	rax, OFFSET FLAT:?staticMetaObject@QssFile@@2UQMetaObject@@B ; QssFile::staticMetaObject
	mov	QWORD PTR tv82[rsp], rax
$LN4@metaObject:
	mov	rax, QWORD PTR tv82[rsp]
; Line 77
	add	rsp, 56					; 00000038H
	ret	0
?metaObject@QssFile@@UEBAPEBUQMetaObject@@XZ ENDP	; QssFile::metaObject
_TEXT	ENDS
; Function compile flags: /Odtp
;	COMDAT ??$_Getvals@_W@?$time_get@_WV?$istreambuf_iterator@_WU?$char_traits@_W@std@@@std@@@std@@IEAAX_WAEBV_Locinfo@1@@Z
_TEXT	SEGMENT
tv85 = 32
tv93 = 40
$T1 = 48
__$ArrayPad$ = 96
this$ = 144
__formal$ = 152
_Lobj$ = 160
??$_Getvals@_W@?$time_get@_WV?$istreambuf_iterator@_WU?$char_traits@_W@std@@@std@@@std@@IEAAX_WAEBV_Locinfo@1@@Z PROC ; std::time_get<wchar_t,std::istreambuf_iterator<wchar_t,std::char_traits<wchar_t> > >::_Getvals<wchar_t>, COMDAT
; File D:\software\vistualStudio\vistualStudioIDE\VC\Tools\MSVC\14.29.30037\include\xloctime
; Line 173
$LN5:
	mov	QWORD PTR [rsp+24], r8
	mov	WORD PTR [rsp+16], dx
	mov	QWORD PTR [rsp+8], rcx
	push	rsi
	push	rdi
	sub	rsp, 120				; 00000078H
	mov	rax, QWORD PTR __security_cookie
	xor	rax, rsp
	mov	QWORD PTR __$ArrayPad$[rsp], rax
; Line 174
	lea	rdx, QWORD PTR $T1[rsp]
	mov	rcx, QWORD PTR _Lobj$[rsp]
	call	QWORD PTR __imp_?_Getcvt@_Locinfo@std@@QEBA?AU_Cvtvec@@XZ
	mov	rcx, QWORD PTR this$[rsp]
	lea	rdi, QWORD PTR [rcx+44]
	mov	rsi, rax
	mov	ecx, 44					; 0000002cH
	rep movsb
; Line 176
	xor	eax, eax
	cmp	eax, 1
	je	SHORT $LN2@Getvals
; Line 177
	mov	rcx, QWORD PTR _Lobj$[rsp]
	call	QWORD PTR __imp_?_W_Getdays@_Locinfo@std@@QEBAPEBGXZ
	mov	rcx, rax
	call	?_Maklocwcs@std@@YAPEA_WPEB_W@Z		; std::_Maklocwcs
	mov	rcx, QWORD PTR this$[rsp]
	mov	QWORD PTR [rcx+16], rax
; Line 178
	mov	rcx, QWORD PTR _Lobj$[rsp]
	call	QWORD PTR __imp_?_W_Getmonths@_Locinfo@std@@QEBAPEBGXZ
	mov	rcx, rax
	call	?_Maklocwcs@std@@YAPEA_WPEB_W@Z		; std::_Maklocwcs
	mov	rcx, QWORD PTR this$[rsp]
	mov	QWORD PTR [rcx+24], rax
; Line 180
	lea	rcx, OFFSET FLAT:??_C@_1BK@MHIKGOKE@?$AA?3?$AAA?$AAM?$AA?3?$AAa?$AAm?$AA?3?$AAP?$AAM?$AA?3?$AAp?$AAm@
	call	?_Maklocwcs@std@@YAPEA_WPEB_W@Z		; std::_Maklocwcs
	mov	rcx, QWORD PTR this$[rsp]
	mov	QWORD PTR [rcx+32], rax
; Line 181
	jmp	$LN3@Getvals
$LN2@Getvals:
; Line 182
	mov	rax, QWORD PTR this$[rsp]
	add	rax, 44					; 0000002cH
	mov	QWORD PTR tv85[rsp], rax
	mov	rcx, QWORD PTR _Lobj$[rsp]
	call	QWORD PTR __imp_?_Getdays@_Locinfo@std@@QEBAPEBDXZ
	mov	rcx, QWORD PTR tv85[rsp]
	mov	r8, rcx
	xor	edx, edx
	mov	rcx, rax
	call	??$_Maklocstr@_W@std@@YAPEA_WPEBDPEA_WAEBU_Cvtvec@@@Z ; std::_Maklocstr<wchar_t>
	mov	rcx, QWORD PTR this$[rsp]
	mov	QWORD PTR [rcx+16], rax
; Line 183
	mov	rax, QWORD PTR this$[rsp]
	add	rax, 44					; 0000002cH
	mov	QWORD PTR tv93[rsp], rax
	mov	rcx, QWORD PTR _Lobj$[rsp]
	call	QWORD PTR __imp_?_Getmonths@_Locinfo@std@@QEBAPEBDXZ
	mov	rcx, QWORD PTR tv93[rsp]
	mov	r8, rcx
	xor	edx, edx
	mov	rcx, rax
	call	??$_Maklocstr@_W@std@@YAPEA_WPEBDPEA_WAEBU_Cvtvec@@@Z ; std::_Maklocstr<wchar_t>
	mov	rcx, QWORD PTR this$[rsp]
	mov	QWORD PTR [rcx+24], rax
; Line 184
	mov	rax, QWORD PTR this$[rsp]
	add	rax, 44					; 0000002cH
	mov	r8, rax
	xor	edx, edx
	lea	rcx, OFFSET FLAT:??_C@_0N@LPFKKEBD@?3AM?3am?3PM?3pm@
	call	??$_Maklocstr@_W@std@@YAPEA_WPEBDPEA_WAEBU_Cvtvec@@@Z ; std::_Maklocstr<wchar_t>
	mov	rcx, QWORD PTR this$[rsp]
	mov	QWORD PTR [rcx+32], rax
$LN3@Getvals:
; Line 186
	mov	rcx, QWORD PTR __$ArrayPad$[rsp]
	xor	rcx, rsp
	call	__security_check_cookie
	add	rsp, 120				; 00000078H
	pop	rdi
	pop	rsi
	ret	0
??$_Getvals@_W@?$time_get@_WV?$istreambuf_iterator@_WU?$char_traits@_W@std@@@std@@@std@@IEAAX_WAEBV_Locinfo@1@@Z ENDP ; std::time_get<wchar_t,std::istreambuf_iterator<wchar_t,std::char_traits<wchar_t> > >::_Getvals<wchar_t>
_TEXT	ENDS
; Function compile flags: /Odtp
;	COMDAT ??$_Getvals@_W@?$time_get@DV?$istreambuf_iterator@DU?$char_traits@D@std@@@std@@@std@@IEAAX_WAEBV_Locinfo@1@@Z
_TEXT	SEGMENT
tv85 = 32
tv93 = 40
$T1 = 48
__$ArrayPad$ = 96
this$ = 144
__formal$ = 152
_Lobj$ = 160
??$_Getvals@_W@?$time_get@DV?$istreambuf_iterator@DU?$char_traits@D@std@@@std@@@std@@IEAAX_WAEBV_Locinfo@1@@Z PROC ; std::time_get<char,std::istreambuf_iterator<char,std::char_traits<char> > >::_Getvals<wchar_t>, COMDAT
; File D:\software\vistualStudio\vistualStudioIDE\VC\Tools\MSVC\14.29.30037\include\xloctime
; Line 173
$LN5:
	mov	QWORD PTR [rsp+24], r8
	mov	WORD PTR [rsp+16], dx
	mov	QWORD PTR [rsp+8], rcx
	push	rsi
	push	rdi
	sub	rsp, 120				; 00000078H
	mov	rax, QWORD PTR __security_cookie
	xor	rax, rsp
	mov	QWORD PTR __$ArrayPad$[rsp], rax
; Line 174
	lea	rdx, QWORD PTR $T1[rsp]
	mov	rcx, QWORD PTR _Lobj$[rsp]
	call	QWORD PTR __imp_?_Getcvt@_Locinfo@std@@QEBA?AU_Cvtvec@@XZ
	mov	rcx, QWORD PTR this$[rsp]
	lea	rdi, QWORD PTR [rcx+44]
	mov	rsi, rax
	mov	ecx, 44					; 0000002cH
	rep movsb
; Line 176
	xor	eax, eax
	cmp	eax, 1
	je	SHORT $LN2@Getvals
; Line 177
	mov	rcx, QWORD PTR _Lobj$[rsp]
	call	QWORD PTR __imp_?_W_Getdays@_Locinfo@std@@QEBAPEBGXZ
	mov	rcx, rax
	call	?_Maklocwcs@std@@YAPEA_WPEB_W@Z		; std::_Maklocwcs
	mov	rcx, QWORD PTR this$[rsp]
	mov	QWORD PTR [rcx+16], rax
; Line 178
	mov	rcx, QWORD PTR _Lobj$[rsp]
	call	QWORD PTR __imp_?_W_Getmonths@_Locinfo@std@@QEBAPEBGXZ
	mov	rcx, rax
	call	?_Maklocwcs@std@@YAPEA_WPEB_W@Z		; std::_Maklocwcs
	mov	rcx, QWORD PTR this$[rsp]
	mov	QWORD PTR [rcx+24], rax
; Line 180
	lea	rcx, OFFSET FLAT:??_C@_1BK@MHIKGOKE@?$AA?3?$AAA?$AAM?$AA?3?$AAa?$AAm?$AA?3?$AAP?$AAM?$AA?3?$AAp?$AAm@
	call	?_Maklocwcs@std@@YAPEA_WPEB_W@Z		; std::_Maklocwcs
	mov	rcx, QWORD PTR this$[rsp]
	mov	QWORD PTR [rcx+32], rax
; Line 181
	jmp	$LN3@Getvals
$LN2@Getvals:
; Line 182
	mov	rax, QWORD PTR this$[rsp]
	add	rax, 44					; 0000002cH
	mov	QWORD PTR tv85[rsp], rax
	mov	rcx, QWORD PTR _Lobj$[rsp]
	call	QWORD PTR __imp_?_Getdays@_Locinfo@std@@QEBAPEBDXZ
	mov	rcx, QWORD PTR tv85[rsp]
	mov	r8, rcx
	xor	edx, edx
	mov	rcx, rax
	call	??$_Maklocstr@D@std@@YAPEADPEBDPEADAEBU_Cvtvec@@@Z ; std::_Maklocstr<char>
	mov	rcx, QWORD PTR this$[rsp]
	mov	QWORD PTR [rcx+16], rax
; Line 183
	mov	rax, QWORD PTR this$[rsp]
	add	rax, 44					; 0000002cH
	mov	QWORD PTR tv93[rsp], rax
	mov	rcx, QWORD PTR _Lobj$[rsp]
	call	QWORD PTR __imp_?_Getmonths@_Locinfo@std@@QEBAPEBDXZ
	mov	rcx, QWORD PTR tv93[rsp]
	mov	r8, rcx
	xor	edx, edx
	mov	rcx, rax
	call	??$_Maklocstr@D@std@@YAPEADPEBDPEADAEBU_Cvtvec@@@Z ; std::_Maklocstr<char>
	mov	rcx, QWORD PTR this$[rsp]
	mov	QWORD PTR [rcx+24], rax
; Line 184
	mov	rax, QWORD PTR this$[rsp]
	add	rax, 44					; 0000002cH
	mov	r8, rax
	xor	edx, edx
	lea	rcx, OFFSET FLAT:??_C@_0N@LPFKKEBD@?3AM?3am?3PM?3pm@
	call	??$_Maklocstr@D@std@@YAPEADPEBDPEADAEBU_Cvtvec@@@Z ; std::_Maklocstr<char>
	mov	rcx, QWORD PTR this$[rsp]
	mov	QWORD PTR [rcx+32], rax
$LN3@Getvals:
; Line 186
	mov	rcx, QWORD PTR __$ArrayPad$[rsp]
	xor	rcx, rsp
	call	__security_check_cookie
	add	rsp, 120				; 00000078H
	pop	rdi
	pop	rsi
	ret	0
??$_Getvals@_W@?$time_get@DV?$istreambuf_iterator@DU?$char_traits@D@std@@@std@@@std@@IEAAX_WAEBV_Locinfo@1@@Z ENDP ; std::time_get<char,std::istreambuf_iterator<char,std::char_traits<char> > >::_Getvals<wchar_t>
_TEXT	ENDS
; Function compile flags: /Odtp
;	COMDAT ??$_Maklocstr@D@std@@YAPEADPEBDPEADAEBU_Cvtvec@@@Z
_TEXT	SEGMENT
_Count$ = 48
_Ptrnext$1 = 56
_Ptrdest$ = 64
_Ptr$ = 96
__formal$ = 104
__formal$ = 112
??$_Maklocstr@D@std@@YAPEADPEBDPEADAEBU_Cvtvec@@@Z PROC	; std::_Maklocstr<char>, COMDAT
; File D:\software\vistualStudio\vistualStudioIDE\VC\Tools\MSVC\14.29.30037\include\xlocale
; Line 522
$LN7:
	mov	QWORD PTR [rsp+24], r8
	mov	QWORD PTR [rsp+16], rdx
	mov	QWORD PTR [rsp+8], rcx
	sub	rsp, 88					; 00000058H
; Line 524
	mov	rcx, QWORD PTR _Ptr$[rsp]
	call	strlen
	inc	rax
	mov	QWORD PTR _Count$[rsp], rax
; Line 526
	mov	DWORD PTR [rsp+32], 526			; 0000020eH
	lea	r9, OFFSET FLAT:$SG171912
	mov	r8d, 2
	mov	edx, 1
	mov	rcx, QWORD PTR _Count$[rsp]
	call	QWORD PTR __imp__calloc_dbg
	mov	QWORD PTR _Ptrdest$[rsp], rax
; Line 528
	cmp	QWORD PTR _Ptrdest$[rsp], 0
	jne	SHORT $LN5@Maklocstr
; Line 529
	call	?_Xbad_alloc@std@@YAXXZ			; std::_Xbad_alloc
$LN5@Maklocstr:
; Line 532
	mov	rax, QWORD PTR _Ptrdest$[rsp]
	mov	QWORD PTR _Ptrnext$1[rsp], rax
	jmp	SHORT $LN4@Maklocstr
$LN2@Maklocstr:
	mov	rax, QWORD PTR _Count$[rsp]
	dec	rax
	mov	QWORD PTR _Count$[rsp], rax
	mov	rax, QWORD PTR _Ptrnext$1[rsp]
	inc	rax
	mov	QWORD PTR _Ptrnext$1[rsp], rax
	mov	rax, QWORD PTR _Ptr$[rsp]
	inc	rax
	mov	QWORD PTR _Ptr$[rsp], rax
$LN4@Maklocstr:
	cmp	QWORD PTR _Count$[rsp], 0
	jbe	SHORT $LN3@Maklocstr
; Line 533
	mov	rax, QWORD PTR _Ptrnext$1[rsp]
	mov	rcx, QWORD PTR _Ptr$[rsp]
	movzx	ecx, BYTE PTR [rcx]
	mov	BYTE PTR [rax], cl
; Line 534
	jmp	SHORT $LN2@Maklocstr
$LN3@Maklocstr:
; Line 536
	mov	rax, QWORD PTR _Ptrdest$[rsp]
$LN6@Maklocstr:
; Line 537
	add	rsp, 88					; 00000058H
	ret	0
??$_Maklocstr@D@std@@YAPEADPEBDPEADAEBU_Cvtvec@@@Z ENDP	; std::_Maklocstr<char>
_TEXT	ENDS
; Function compile flags: /Odtp
;	COMDAT ?_Maklocwcs@std@@YAPEA_WPEB_W@Z
_TEXT	SEGMENT
_Ptrdest$ = 48
_Count$ = 56
_Ptr$ = 80
?_Maklocwcs@std@@YAPEA_WPEB_W@Z PROC			; std::_Maklocwcs, COMDAT
; File D:\software\vistualStudio\vistualStudioIDE\VC\Tools\MSVC\14.29.30037\include\xlocnum
; Line 90
$LN4:
	mov	QWORD PTR [rsp+8], rcx
	sub	rsp, 72					; 00000048H
; Line 91
	mov	rcx, QWORD PTR _Ptr$[rsp]
	call	QWORD PTR __imp_wcslen
	inc	rax
	mov	QWORD PTR _Count$[rsp], rax
; Line 93
	mov	DWORD PTR [rsp+32], 93			; 0000005dH
	lea	r9, OFFSET FLAT:??_C@_0FF@OKKMIHHL@D?3?2software?2vistualStudio?2vistu@
	mov	r8d, 2
	mov	edx, 2
	mov	rcx, QWORD PTR _Count$[rsp]
	call	QWORD PTR __imp__calloc_dbg
	mov	QWORD PTR _Ptrdest$[rsp], rax
; Line 95
	cmp	QWORD PTR _Ptrdest$[rsp], 0
	jne	SHORT $LN2@Maklocwcs
; Line 96
	call	?_Xbad_alloc@std@@YAXXZ			; std::_Xbad_alloc
$LN2@Maklocwcs:
; Line 99
	mov	r8, QWORD PTR _Count$[rsp]
	mov	rdx, QWORD PTR _Ptr$[rsp]
	mov	rcx, QWORD PTR _Ptrdest$[rsp]
	call	wmemcpy
; Line 100
	mov	rax, QWORD PTR _Ptrdest$[rsp]
$LN3@Maklocwcs:
; Line 101
	add	rsp, 72					; 00000048H
	ret	0
?_Maklocwcs@std@@YAPEA_WPEB_W@Z ENDP			; std::_Maklocwcs
_TEXT	ENDS
; Function compile flags: /Odtp
;	COMDAT ??$_Maklocstr@_W@std@@YAPEA_WPEBDPEA_WAEBU_Cvtvec@@@Z
_TEXT	SEGMENT
_Bytes$ = 48
_Wchars$ = 56
_Count$ = 64
_Ptrnext$ = 72
_Wc$ = 80
_Ptr1$ = 88
_Ptrdest$ = 96
_Count1$ = 104
_Mbst1$ = 112
_Mbst2$ = 120
_Ptr$ = 144
__formal$ = 152
_Cvt$ = 160
??$_Maklocstr@_W@std@@YAPEA_WPEBDPEA_WAEBU_Cvtvec@@@Z PROC ; std::_Maklocstr<wchar_t>, COMDAT
; File D:\software\vistualStudio\vistualStudioIDE\VC\Tools\MSVC\14.29.30037\include\xlocale
; Line 540
$LN12:
	mov	QWORD PTR [rsp+24], r8
	mov	QWORD PTR [rsp+16], rdx
	mov	QWORD PTR [rsp+8], rcx
	push	rdi
	sub	rsp, 128				; 00000080H
; Line 548
	lea	rax, QWORD PTR _Mbst1$[rsp]
	mov	rdi, rax
	xor	eax, eax
	mov	ecx, 8
	rep stosb
; Line 550
	mov	rcx, QWORD PTR _Ptr$[rsp]
	call	strlen
	inc	rax
	mov	QWORD PTR _Count1$[rsp], rax
; Line 551
	mov	rax, QWORD PTR _Count1$[rsp]
	mov	QWORD PTR _Count$[rsp], rax
	mov	QWORD PTR _Wchars$[rsp], 0
	mov	rax, QWORD PTR _Ptr$[rsp]
	mov	QWORD PTR _Ptr1$[rsp], rax
	jmp	SHORT $LN4@Maklocstr
$LN2@Maklocstr:
	movsxd	rax, DWORD PTR _Bytes$[rsp]
	mov	rcx, QWORD PTR _Count$[rsp]
	sub	rcx, rax
	mov	rax, rcx
	mov	QWORD PTR _Count$[rsp], rax
	movsxd	rax, DWORD PTR _Bytes$[rsp]
	mov	rcx, QWORD PTR _Ptr1$[rsp]
	add	rcx, rax
	mov	rax, rcx
	mov	QWORD PTR _Ptr1$[rsp], rax
	mov	rax, QWORD PTR _Wchars$[rsp]
	inc	rax
	mov	QWORD PTR _Wchars$[rsp], rax
$LN4@Maklocstr:
	cmp	QWORD PTR _Count$[rsp], 0
	jbe	SHORT $LN3@Maklocstr
; Line 552
	mov	rax, QWORD PTR _Cvt$[rsp]
	mov	QWORD PTR [rsp+32], rax
	lea	r9, QWORD PTR _Mbst1$[rsp]
	mov	r8, QWORD PTR _Count$[rsp]
	mov	rdx, QWORD PTR _Ptr1$[rsp]
	lea	rcx, QWORD PTR _Wc$[rsp]
	call	_Mbrtowc
	mov	DWORD PTR _Bytes$[rsp], eax
	cmp	DWORD PTR _Bytes$[rsp], 0
	jg	SHORT $LN8@Maklocstr
; Line 553
	jmp	SHORT $LN3@Maklocstr
$LN8@Maklocstr:
; Line 555
	jmp	SHORT $LN2@Maklocstr
$LN3@Maklocstr:
; Line 557
	mov	rax, QWORD PTR _Wchars$[rsp]
	inc	rax
	mov	QWORD PTR _Wchars$[rsp], rax
; Line 559
	mov	DWORD PTR [rsp+32], 559			; 0000022fH
	lea	r9, OFFSET FLAT:??_C@_0FF@GJOBIFNK@D?3?2software?2vistualStudio?2vistu@
	mov	r8d, 2
	mov	edx, 2
	mov	rcx, QWORD PTR _Wchars$[rsp]
	call	QWORD PTR __imp__calloc_dbg
	mov	QWORD PTR _Ptrdest$[rsp], rax
; Line 561
	cmp	QWORD PTR _Ptrdest$[rsp], 0
	jne	SHORT $LN9@Maklocstr
; Line 562
	call	?_Xbad_alloc@std@@YAXXZ			; std::_Xbad_alloc
$LN9@Maklocstr:
; Line 565
	mov	rax, QWORD PTR _Ptrdest$[rsp]
	mov	QWORD PTR _Ptrnext$[rsp], rax
; Line 566
	lea	rax, QWORD PTR _Mbst2$[rsp]
	mov	rdi, rax
	xor	eax, eax
	mov	ecx, 8
	rep stosb
; Line 568
	jmp	SHORT $LN7@Maklocstr
$LN5@Maklocstr:
	movsxd	rax, DWORD PTR _Bytes$[rsp]
	mov	rcx, QWORD PTR _Count$[rsp]
	sub	rcx, rax
	mov	rax, rcx
	mov	QWORD PTR _Count$[rsp], rax
	movsxd	rax, DWORD PTR _Bytes$[rsp]
	mov	rcx, QWORD PTR _Ptr$[rsp]
	add	rcx, rax
	mov	rax, rcx
	mov	QWORD PTR _Ptr$[rsp], rax
	mov	rax, QWORD PTR _Wchars$[rsp]
	dec	rax
	mov	QWORD PTR _Wchars$[rsp], rax
	mov	rax, QWORD PTR _Ptrnext$[rsp]
	add	rax, 2
	mov	QWORD PTR _Ptrnext$[rsp], rax
$LN7@Maklocstr:
	cmp	QWORD PTR _Wchars$[rsp], 0
	jbe	SHORT $LN6@Maklocstr
; Line 569
	mov	rax, QWORD PTR _Cvt$[rsp]
	mov	QWORD PTR [rsp+32], rax
	lea	r9, QWORD PTR _Mbst2$[rsp]
	mov	r8, QWORD PTR _Count1$[rsp]
	mov	rdx, QWORD PTR _Ptr$[rsp]
	mov	rcx, QWORD PTR _Ptrnext$[rsp]
	call	_Mbrtowc
	mov	DWORD PTR _Bytes$[rsp], eax
	cmp	DWORD PTR _Bytes$[rsp], 0
	jg	SHORT $LN10@Maklocstr
; Line 570
	jmp	SHORT $LN6@Maklocstr
$LN10@Maklocstr:
; Line 572
	jmp	$LN5@Maklocstr
$LN6@Maklocstr:
; Line 574
	xor	eax, eax
	mov	rcx, QWORD PTR _Ptrnext$[rsp]
	mov	WORD PTR [rcx], ax
; Line 576
	mov	rax, QWORD PTR _Ptrdest$[rsp]
$LN11@Maklocstr:
; Line 577
	add	rsp, 128				; 00000080H
	pop	rdi
	ret	0
??$_Maklocstr@_W@std@@YAPEA_WPEBDPEA_WAEBU_Cvtvec@@@Z ENDP ; std::_Maklocstr<wchar_t>
_TEXT	ENDS
; Function compile flags: /Odtp
;	COMDAT ??C?$QScopedPointer@VQObjectData@@U?$QScopedPointerDeleter@VQObjectData@@@@@@QEBAPEAVQObjectData@@XZ
_TEXT	SEGMENT
this$ = 8
??C?$QScopedPointer@VQObjectData@@U?$QScopedPointerDeleter@VQObjectData@@@@@@QEBAPEAVQObjectData@@XZ PROC ; QScopedPointer<QObjectData,QScopedPointerDeleter<QObjectData> >::operator->, COMDAT
; File D:\software\qt\6.0.4\msvc2019_64\include\QtCore\qscopedpointer.h
; Line 116
	mov	QWORD PTR [rsp+8], rcx
; Line 117
	mov	rax, QWORD PTR this$[rsp]
	mov	rax, QWORD PTR [rax]
; Line 118
	ret	0
??C?$QScopedPointer@VQObjectData@@U?$QScopedPointerDeleter@VQObjectData@@@@@@QEBAPEAVQObjectData@@XZ ENDP ; QScopedPointer<QObjectData,QScopedPointerDeleter<QObjectData> >::operator->
_TEXT	ENDS
; Function compile flags: /Odtp
;	COMDAT wmemcpy
_TEXT	SEGMENT
_S1$ = 48
_S2$ = 56
_N$ = 64
wmemcpy	PROC						; COMDAT
; File D:\Windows Kits\10\Include\10.0.19041.0\ucrt\wchar.h
; Line 234
$LN3:
	mov	QWORD PTR [rsp+24], r8
	mov	QWORD PTR [rsp+16], rdx
	mov	QWORD PTR [rsp+8], rcx
	sub	rsp, 40					; 00000028H
; Line 236
	mov	rax, QWORD PTR _N$[rsp]
	shl	rax, 1
	mov	r8, rax
	mov	rdx, QWORD PTR _S2$[rsp]
	mov	rcx, QWORD PTR _S1$[rsp]
	call	memcpy
; Line 237
	add	rsp, 40					; 00000028H
	ret	0
wmemcpy	ENDP
_TEXT	ENDS
; Function compile flags: /Odtp
;	COMDAT ?__empty_global_delete@@YAXPEAX_KW4align_val_t@std@@@Z
_TEXT	SEGMENT
__formal$ = 8
__formal$ = 16
__formal$ = 24
?__empty_global_delete@@YAXPEAX_KW4align_val_t@std@@@Z PROC ; __empty_global_delete, COMDAT
; File C:\Users\lwq\Documents\GitHub\WeClound\debug\moc\moc_qssfile.cpp
; Line 94
	mov	QWORD PTR [rsp+24], r8
	mov	QWORD PTR [rsp+16], rdx
	mov	QWORD PTR [rsp+8], rcx
	ret	0
?__empty_global_delete@@YAXPEAX_KW4align_val_t@std@@@Z ENDP ; __empty_global_delete
_TEXT	ENDS
; Function compile flags: /Odtp
;	COMDAT ?__empty_global_delete@@YAXPEAXW4align_val_t@std@@@Z
_TEXT	SEGMENT
__formal$ = 8
__formal$ = 16
?__empty_global_delete@@YAXPEAXW4align_val_t@std@@@Z PROC ; __empty_global_delete, COMDAT
; File C:\Users\lwq\Documents\GitHub\WeClound\debug\moc\moc_qssfile.cpp
; Line 94
	mov	QWORD PTR [rsp+16], rdx
	mov	QWORD PTR [rsp+8], rcx
	ret	0
?__empty_global_delete@@YAXPEAXW4align_val_t@std@@@Z ENDP ; __empty_global_delete
_TEXT	ENDS
; Function compile flags: /Odtp
;	COMDAT ?__empty_global_delete@@YAXPEAX_K@Z
_TEXT	SEGMENT
__formal$ = 8
__formal$ = 16
?__empty_global_delete@@YAXPEAX_K@Z PROC		; __empty_global_delete, COMDAT
; File C:\Users\lwq\Documents\GitHub\WeClound\debug\moc\moc_qssfile.cpp
; Line 94
	mov	QWORD PTR [rsp+16], rdx
	mov	QWORD PTR [rsp+8], rcx
	ret	0
?__empty_global_delete@@YAXPEAX_K@Z ENDP		; __empty_global_delete
_TEXT	ENDS
; Function compile flags: /Odtp
;	COMDAT ?__empty_global_delete@@YAXPEAX@Z
_TEXT	SEGMENT
__formal$ = 8
?__empty_global_delete@@YAXPEAX@Z PROC			; __empty_global_delete, COMDAT
; File C:\Users\lwq\Documents\GitHub\WeClound\debug\moc\moc_qssfile.cpp
; Line 94
	mov	QWORD PTR [rsp+8], rcx
	ret	0
?__empty_global_delete@@YAXPEAX@Z ENDP			; __empty_global_delete
_TEXT	ENDS
END
