; Listing generated by Microsoft (R) Optimizing Compiler Version 19.29.30038.1 

include listing.inc

INCLUDELIB MSVCRTD
INCLUDELIB OLDNAMES

PUBLIC	?staticMetaObject@MainWindow@@2UQMetaObject@@B	; MainWindow::staticMetaObject
PUBLIC	?qt_static_metacall@MainWindow@@CAXPEAVQObject@@W4Call@QMetaObject@@HPEAPEAX@Z ; MainWindow::qt_static_metacall
PUBLIC	??$staticMetaObject@$1?staticMetaObject@QMainWindow@@2UQMetaObject@@B@QMetaObject@@SAPEBU0@XZ ; QMetaObject::staticMetaObject<&QMainWindow::staticMetaObject>
CONST	SEGMENT
?staticMetaObject@MainWindow@@2UQMetaObject@@B DQ 0000000000000000H ; MainWindow::staticMetaObject
	DQ	FLAT:??$staticMetaObject@$1?staticMetaObject@QMainWindow@@2UQMetaObject@@B@QMetaObject@@SAPEBU0@XZ
	DQ	FLAT:?qt_meta_stringdata_MainWindow@@3Uqt_meta_stringdata_MainWindow_t@@B
	DQ	FLAT:?qt_meta_data_MainWindow@@3QBIB
	DQ	FLAT:?qt_static_metacall@MainWindow@@CAXPEAVQObject@@W4Call@QMetaObject@@HPEAPEAX@Z
	DQ	0000000000000000H
	DQ	0000000000000000H
	DQ	0000000000000000H
?qt_meta_stringdata_MainWindow@@3Uqt_meta_stringdata_MainWindow_t@@B DD 08H ; qt_meta_stringdata_MainWindow
	DD	0aH
	DB	04dH
	DB	061H
	DB	069H
	DB	06eH
	DB	057H
	DB	069H
	DB	06eH
	DB	064H
	DB	06fH
	DB	077H
	DB	00H
	ORG $+1
$SG139565 DB	'%s', 00H
	ORG $+1
?qt_meta_data_MainWindow@@3QBIB DD 09H			; qt_meta_data_MainWindow
	DD	00H
	DD	00H
	DD	00H
	DD	00H
	DD	00H
	DD	00H
	DD	00H
	DD	00H
	DD	00H
	DD	00H
	DD	00H
	DD	00H
	DD	00H
	DD	00H
	ORG $+4
$SG139564 DB	'invalid argument', 00H
	ORG $+7
$SG139566 DB	'D:\software\vistualStudio\vistualStudioIDE\VC\Tools\MSVC'
	DB	'\14.29.30037\include\xmemory', 00H
	ORG $+3
$SG139569 DB	'"', 00H, 'i', 00H, 'n', 00H, 'v', 00H, 'a', 00H, 'l', 00H
	DB	'i', 00H, 'd', 00H, ' ', 00H, 'a', 00H, 'r', 00H, 'g', 00H, 'u'
	DB	00H, 'm', 00H, 'e', 00H, 'n', 00H, 't', 00H, '"', 00H, 00H, 00H
	ORG $+2
$SG139567 DB	'D', 00H, ':', 00H, '\', 00H, 's', 00H, 'o', 00H, 'f', 00H
	DB	't', 00H, 'w', 00H, 'a', 00H, 'r', 00H, 'e', 00H, '\', 00H, 'v'
	DB	00H, 'i', 00H, 's', 00H, 't', 00H, 'u', 00H, 'a', 00H, 'l', 00H
	DB	'S', 00H, 't', 00H, 'u', 00H, 'd', 00H, 'i', 00H, 'o', 00H, '\'
	DB	00H, 'v', 00H, 'i', 00H, 's', 00H, 't', 00H, 'u', 00H, 'a', 00H
	DB	'l', 00H, 'S', 00H, 't', 00H, 'u', 00H, 'd', 00H, 'i', 00H, 'o'
	DB	00H, 'I', 00H, 'D', 00H, 'E', 00H, '\', 00H, 'V', 00H, 'C', 00H
	DB	'\', 00H, 'T', 00H, 'o', 00H, 'o', 00H, 'l', 00H, 's', 00H, '\'
	DB	00H, 'M', 00H, 'S', 00H, 'V', 00H, 'C', 00H, '\', 00H, '1', 00H
	DB	'4', 00H, '.', 00H, '2', 00H, '9', 00H, '.', 00H, '3', 00H, '0'
	DB	00H, '0', 00H, '3', 00H, '7', 00H, '\', 00H, 'i', 00H, 'n', 00H
	DB	'c', 00H, 'l', 00H, 'u', 00H, 'd', 00H, 'e', 00H, '\', 00H, 'x'
	DB	00H, 'm', 00H, 'e', 00H, 'm', 00H, 'o', 00H, 'r', 00H, 'y', 00H
	DB	00H, 00H
	ORG $+6
$SG139568 DB	's', 00H, 't', 00H, 'd', 00H, ':', 00H, ':', 00H, '_', 00H
	DB	'A', 00H, 'l', 00H, 'l', 00H, 'o', 00H, 'c', 00H, 'a', 00H, 't'
	DB	00H, 'e', 00H, '_', 00H, 'm', 00H, 'a', 00H, 'n', 00H, 'u', 00H
	DB	'a', 00H, 'l', 00H, 'l', 00H, 'y', 00H, '_', 00H, 'v', 00H, 'e'
	DB	00H, 'c', 00H, 't', 00H, 'o', 00H, 'r', 00H, '_', 00H, 'a', 00H
	DB	'l', 00H, 'i', 00H, 'g', 00H, 'n', 00H, 'e', 00H, 'd', 00H, 00H
	DB	00H
	ORG $+2
$SG106005 DB	'void', 00H
	ORG $+3
$SG139080 DB	'D:\software\qt\6.0.4\msvc2019_64\include\QtCore\qmetatyp'
	DB	'e.h', 00H
	ORG $+12
$SG139081 DB	'qRegisterNormalizedMetaType was called with a not normal'
	DB	'ized type name, please call qRegisterMetaType instead.', 00H
	ORG $+1
$SG139082 DB	'qRegisterNormalizedMetaType', 00H
CONST	ENDS
PUBLIC	??C?$QScopedPointer@VQObjectData@@U?$QScopedPointerDeleter@VQObjectData@@@@@@QEBAPEAVQObjectData@@XZ ; QScopedPointer<QObjectData,QScopedPointerDeleter<QObjectData> >::operator->
PUBLIC	?metaObject@MainWindow@@UEBAPEBUQMetaObject@@XZ	; MainWindow::metaObject
PUBLIC	?qt_metacast@MainWindow@@UEAAPEAXPEBD@Z		; MainWindow::qt_metacast
PUBLIC	?qt_metacall@MainWindow@@UEAAHW4Call@QMetaObject@@HPEAPEAX@Z ; MainWindow::qt_metacall
EXTRN	strcmp:PROC
EXTRN	__imp_?dynamicMetaObject@QObjectData@@QEBAPEAUQMetaObject@@XZ:PROC
EXTRN	__imp_?qt_metacast@QMainWindow@@UEAAPEAXPEBD@Z:PROC
EXTRN	__imp_?qt_metacall@QMainWindow@@UEAAHW4Call@QMetaObject@@HPEAPEAX@Z:PROC
EXTRN	__imp_?staticMetaObject@QMainWindow@@2UQMetaObject@@B:ZWORD
pdata	SEGMENT
$pdata$?metaObject@MainWindow@@UEBAPEBUQMetaObject@@XZ DD imagerel $LN5
	DD	imagerel $LN5+88
	DD	imagerel $unwind$?metaObject@MainWindow@@UEBAPEBUQMetaObject@@XZ
$pdata$?qt_metacast@MainWindow@@UEAAPEAXPEBD@Z DD imagerel $LN5
	DD	imagerel $LN5+75
	DD	imagerel $unwind$?qt_metacast@MainWindow@@UEAAPEAXPEBD@Z
$pdata$?qt_metacall@MainWindow@@UEAAHW4Call@QMetaObject@@HPEAPEAX@Z DD imagerel $LN3
	DD	imagerel $LN3+61
	DD	imagerel $unwind$?qt_metacall@MainWindow@@UEAAHW4Call@QMetaObject@@HPEAPEAX@Z
pdata	ENDS
xdata	SEGMENT
$unwind$?metaObject@MainWindow@@UEBAPEBUQMetaObject@@XZ DD 010901H
	DD	06209H
$unwind$?qt_metacast@MainWindow@@UEAAPEAXPEBD@Z DD 010e01H
	DD	0420eH
$unwind$?qt_metacall@MainWindow@@UEAAHW4Call@QMetaObject@@HPEAPEAX@Z DD 011701H
	DD	04217H
xdata	ENDS
; Function compile flags: /Odtp
;	COMDAT ??$staticMetaObject@$1?staticMetaObject@QMainWindow@@2UQMetaObject@@B@QMetaObject@@SAPEBU0@XZ
_TEXT	SEGMENT
??$staticMetaObject@$1?staticMetaObject@QMainWindow@@2UQMetaObject@@B@QMetaObject@@SAPEBU0@XZ PROC ; QMetaObject::staticMetaObject<&QMainWindow::staticMetaObject>, COMDAT
; File D:\software\qt\6.0.4\msvc2019_64\include\QtCore\qobjectdefs.h
; Line 398
	mov	rax, QWORD PTR __imp_?staticMetaObject@QMainWindow@@2UQMetaObject@@B
; Line 399
	ret	0
??$staticMetaObject@$1?staticMetaObject@QMainWindow@@2UQMetaObject@@B@QMetaObject@@SAPEBU0@XZ ENDP ; QMetaObject::staticMetaObject<&QMainWindow::staticMetaObject>
_TEXT	ENDS
; Function compile flags: /Odtp
_TEXT	SEGMENT
_o$ = 8
_c$ = 16
_id$ = 24
_a$ = 32
?qt_static_metacall@MainWindow@@CAXPEAVQObject@@W4Call@QMetaObject@@HPEAPEAX@Z PROC ; MainWindow::qt_static_metacall
; File C:\Users\lwq\Documents\GitHub\WeClound\debug\moc\moc_mainwindow.cpp
; Line 56
	mov	QWORD PTR [rsp+32], r9
	mov	DWORD PTR [rsp+24], r8d
	mov	DWORD PTR [rsp+16], edx
	mov	QWORD PTR [rsp+8], rcx
; Line 61
	ret	0
?qt_static_metacall@MainWindow@@CAXPEAVQObject@@W4Call@QMetaObject@@HPEAPEAX@Z ENDP ; MainWindow::qt_static_metacall
_TEXT	ENDS
; Function compile flags: /Odtp
_TEXT	SEGMENT
this$ = 48
_c$ = 56
_id$ = 64
_a$ = 72
?qt_metacall@MainWindow@@UEAAHW4Call@QMetaObject@@HPEAPEAX@Z PROC ; MainWindow::qt_metacall
; File C:\Users\lwq\Documents\GitHub\WeClound\debug\moc\moc_mainwindow.cpp
; Line 88
$LN3:
	mov	QWORD PTR [rsp+32], r9
	mov	DWORD PTR [rsp+24], r8d
	mov	DWORD PTR [rsp+16], edx
	mov	QWORD PTR [rsp+8], rcx
	sub	rsp, 40					; 00000028H
; Line 89
	mov	r9, QWORD PTR _a$[rsp]
	mov	r8d, DWORD PTR _id$[rsp]
	mov	edx, DWORD PTR _c$[rsp]
	mov	rcx, QWORD PTR this$[rsp]
	call	QWORD PTR __imp_?qt_metacall@QMainWindow@@UEAAHW4Call@QMetaObject@@HPEAPEAX@Z
	mov	DWORD PTR _id$[rsp], eax
; Line 90
	mov	eax, DWORD PTR _id$[rsp]
; Line 91
	add	rsp, 40					; 00000028H
	ret	0
?qt_metacall@MainWindow@@UEAAHW4Call@QMetaObject@@HPEAPEAX@Z ENDP ; MainWindow::qt_metacall
_TEXT	ENDS
; Function compile flags: /Odtp
_TEXT	SEGMENT
this$ = 48
_clname$ = 56
?qt_metacast@MainWindow@@UEAAPEAXPEBD@Z PROC		; MainWindow::qt_metacast
; File C:\Users\lwq\Documents\GitHub\WeClound\debug\moc\moc_mainwindow.cpp
; Line 80
$LN5:
	mov	QWORD PTR [rsp+16], rdx
	mov	QWORD PTR [rsp+8], rcx
	sub	rsp, 40					; 00000028H
; Line 81
	cmp	QWORD PTR _clname$[rsp], 0
	jne	SHORT $LN2@qt_metacas
	xor	eax, eax
	jmp	SHORT $LN1@qt_metacas
$LN2@qt_metacas:
; Line 82
	lea	rdx, OFFSET FLAT:?qt_meta_stringdata_MainWindow@@3Uqt_meta_stringdata_MainWindow_t@@B+8
	mov	rcx, QWORD PTR _clname$[rsp]
	call	strcmp
	test	eax, eax
	jne	SHORT $LN3@qt_metacas
; Line 83
	mov	rax, QWORD PTR this$[rsp]
	jmp	SHORT $LN1@qt_metacas
$LN3@qt_metacas:
; Line 84
	mov	rdx, QWORD PTR _clname$[rsp]
	mov	rcx, QWORD PTR this$[rsp]
	call	QWORD PTR __imp_?qt_metacast@QMainWindow@@UEAAPEAXPEBD@Z
$LN1@qt_metacas:
; Line 85
	add	rsp, 40					; 00000028H
	ret	0
?qt_metacast@MainWindow@@UEAAPEAXPEBD@Z ENDP		; MainWindow::qt_metacast
_TEXT	ENDS
; Function compile flags: /Odtp
_TEXT	SEGMENT
tv82 = 32
this$ = 64
?metaObject@MainWindow@@UEBAPEBUQMetaObject@@XZ PROC	; MainWindow::metaObject
; File C:\Users\lwq\Documents\GitHub\WeClound\debug\moc\moc_mainwindow.cpp
; Line 75
$LN5:
	mov	QWORD PTR [rsp+8], rcx
	sub	rsp, 56					; 00000038H
; Line 76
	mov	rax, QWORD PTR this$[rsp]
	add	rax, 8
	mov	rcx, rax
	call	??C?$QScopedPointer@VQObjectData@@U?$QScopedPointerDeleter@VQObjectData@@@@@@QEBAPEAVQObjectData@@XZ ; QScopedPointer<QObjectData,QScopedPointerDeleter<QObjectData> >::operator->
	cmp	QWORD PTR [rax+56], 0
	je	SHORT $LN3@metaObject
	mov	rax, QWORD PTR this$[rsp]
	add	rax, 8
	mov	rcx, rax
	call	??C?$QScopedPointer@VQObjectData@@U?$QScopedPointerDeleter@VQObjectData@@@@@@QEBAPEAVQObjectData@@XZ ; QScopedPointer<QObjectData,QScopedPointerDeleter<QObjectData> >::operator->
	mov	rcx, rax
	call	QWORD PTR __imp_?dynamicMetaObject@QObjectData@@QEBAPEAUQMetaObject@@XZ
	mov	QWORD PTR tv82[rsp], rax
	jmp	SHORT $LN4@metaObject
$LN3@metaObject:
	lea	rax, OFFSET FLAT:?staticMetaObject@MainWindow@@2UQMetaObject@@B ; MainWindow::staticMetaObject
	mov	QWORD PTR tv82[rsp], rax
$LN4@metaObject:
	mov	rax, QWORD PTR tv82[rsp]
; Line 77
	add	rsp, 56					; 00000038H
	ret	0
?metaObject@MainWindow@@UEBAPEBUQMetaObject@@XZ ENDP	; MainWindow::metaObject
_TEXT	ENDS
; Function compile flags: /Odtp
;	COMDAT ??C?$QScopedPointer@VQObjectData@@U?$QScopedPointerDeleter@VQObjectData@@@@@@QEBAPEAVQObjectData@@XZ
_TEXT	SEGMENT
this$ = 8
??C?$QScopedPointer@VQObjectData@@U?$QScopedPointerDeleter@VQObjectData@@@@@@QEBAPEAVQObjectData@@XZ PROC ; QScopedPointer<QObjectData,QScopedPointerDeleter<QObjectData> >::operator->, COMDAT
; File D:\software\qt\6.0.4\msvc2019_64\include\QtCore\qscopedpointer.h
; Line 116
	mov	QWORD PTR [rsp+8], rcx
; Line 117
	mov	rax, QWORD PTR this$[rsp]
	mov	rax, QWORD PTR [rax]
; Line 118
	ret	0
??C?$QScopedPointer@VQObjectData@@U?$QScopedPointerDeleter@VQObjectData@@@@@@QEBAPEAVQObjectData@@XZ ENDP ; QScopedPointer<QObjectData,QScopedPointerDeleter<QObjectData> >::operator->
_TEXT	ENDS
END
